; Function Attrs: mustprogress uwtable
define noundef i32 @_ZN3zmq5rep_t5xsendEPNS_5msg_tE(ptr noundef nonnull align 8 dereferenceable(2184) %this, ptr noundef %msg_) unnamed_addr #0 align 2 {
entry:
  %_sending_reply = getelementptr inbounds i8, ptr %this, i64 2180
  %0 = load i8, ptr %_sending_reply, align 4
  %1 = and i8 %0, 1
  %tobool.not = icmp eq i8 %1, 0
  br i1 %tobool.not, label %if.then, label %if.end

if.then:                                          ; preds = %entry
  %call = tail call ptr @__errno_location() #10
  store i32 156384763, ptr %call, align 4
  br label %return

if.end:                                           ; preds = %entry
  %call2 = tail call noundef zeroext i8 @_ZNK3zmq5msg_t5flagsEv(ptr noundef nonnull align 8 dereferenceable(64) %msg_)
  %call3 = tail call noundef i32 @_ZN3zmq8router_t5xsendEPNS_5msg_tE(ptr noundef nonnull align 8 dereferenceable(2180) %this, ptr noundef nonnull %msg_)
  %cmp4.not = icmp eq i32 %call3, 0
  br i1 %cmp4.not, label %if.end6, label %return

if.end6:                                          ; preds = %if.end
  %2 = and i8 %call2, 1
  %cmp.not = icmp eq i8 %2, 0
  br i1 %cmp.not, label %if.then8, label %return

if.then8:                                         ; preds = %if.end6
  store i8 0, ptr %_sending_reply, align 4
  br label %return

return:                                           ; preds = %if.end6, %if.then8, %if.end, %if.then
  %retval.0 = phi i32 [ -1, %if.then ], [ %call3, %if.end ], [ 0, %if.then8 ], [ 0, %if.end6 ]
  ret i32 %retval.0
}